target datalayout = "e-m:e-p270:32:32-p271:32:32-p272:64:64-i64:64-i128:128-f80:128-n8:16:32:64-S128"
target triple = "x86_64-pc-linux-gnu"

%struct.gmx_sel_mempool_t = type { i64, i64, ptr, ptr, i32, ptr, i32, i64 }
%struct.gmx_sel_mempool_block_t = type { ptr, i64 }
%"class.gmx::InternalError" = type { %"class.gmx::GromacsException" }
%"class.gmx::GromacsException" = type { %"class.std::exception", %"class.std::shared_ptr" }
%"class.std::exception" = type { ptr }
%"class.std::shared_ptr" = type { %"class.std::__shared_ptr" }
%"class.std::__shared_ptr" = type { ptr, %"class.std::__shared_count" }
%"class.std::__shared_count" = type { ptr }
%"class.gmx::ExceptionInitializer" = type { %"class.std::__cxx11::basic_string", %"class.std::vector" }
%"class.std::__cxx11::basic_string" = type { %"struct.std::__cxx11::basic_string<char>::_Alloc_hider", i64, %union.anon }
%"struct.std::__cxx11::basic_string<char>::_Alloc_hider" = type { ptr }
%union.anon = type { i64, [8 x i8] }
%"class.std::vector" = type { %"struct.std::_Vector_base" }
%"struct.std::_Vector_base" = type { %"struct.std::_Vector_base<std::__exception_ptr::exception_ptr, std::allocator<std::__exception_ptr::exception_ptr>>::_Vector_impl" }
%"struct.std::_Vector_base<std::__exception_ptr::exception_ptr, std::allocator<std::__exception_ptr::exception_ptr>>::_Vector_impl" = type { %"struct.std::_Vector_base<std::__exception_ptr::exception_ptr, std::allocator<std::__exception_ptr::exception_ptr>>::_Vector_impl_data" }
%"struct.std::_Vector_base<std::__exception_ptr::exception_ptr, std::allocator<std::__exception_ptr::exception_ptr>>::_Vector_impl_data" = type { ptr, ptr, ptr }
%"class.gmx::ExceptionInfo" = type { %"class.gmx::internal::IExceptionInfo", %"struct.gmx::ThrowLocation" }
%"class.gmx::internal::IExceptionInfo" = type { ptr }
%"struct.gmx::ThrowLocation" = type <{ ptr, ptr, i32, [4 x i8] }>

@.str.1 = private unnamed_addr constant [127 x i8] c"generated/home/dtcxzyw/WorkSpace/Projects/compilers/llvm-opt-benchmark/bench/gromacs/gromacs/src/gromacs/selection/mempool.cpp\00", align 1
@.str.4 = private unnamed_addr constant [15 x i8] c"mp->blockstack\00", align 1
@.str.5 = private unnamed_addr constant [26 x i8] c"Out of memory pool memory\00", align 1
@__PRETTY_FUNCTION__._Z22_gmx_sel_mempool_allocP17gmx_sel_mempool_tm = private unnamed_addr constant [58 x i8] c"void *_gmx_sel_mempool_alloc(gmx_sel_mempool_t *, size_t)\00", align 1
@_ZTIN3gmx13InternalErrorE = external constant ptr
@_ZTISt9bad_alloc = external constant ptr
@_ZTVN3gmx8internal14IExceptionInfoE = external unnamed_addr constant { [4 x ptr] }, align 8
@_ZTVN3gmx13InternalErrorE = external unnamed_addr constant { [6 x ptr] }, align 8
@_ZTVSt9exception = external unnamed_addr constant { [5 x ptr] }, align 8
@_ZTVSt9bad_alloc = external unnamed_addr constant { [5 x ptr] }, align 8

; Function Attrs: mustprogress nounwind uwtable
define linkonce_odr void @_ZNSt9exceptionC2Ev(ptr noundef nonnull align 8 dereferenceable(8) %0) unnamed_addr #2 comdat align 2 {
  %2 = alloca ptr, align 8
  store ptr %0, ptr %2, align 8
  %3 = load ptr, ptr %2, align 8
  store ptr getelementptr inbounds inrange(-16, 24) ({ [5 x ptr] }, ptr @_ZTVSt9exception, i32 0, i32 0, i32 2), ptr %3, align 8
  ret void
}

; Function Attrs: mustprogress nounwind uwtable
define linkonce_odr void @_ZN3gmx8internal14IExceptionInfoC2Ev(ptr noundef nonnull align 8 dereferenceable(8) %0) unnamed_addr #2 comdat align 2 {
  %2 = alloca ptr, align 8
  store ptr %0, ptr %2, align 8
  %3 = load ptr, ptr %2, align 8
  store ptr getelementptr inbounds inrange(-16, 16) ({ [4 x ptr] }, ptr @_ZTVN3gmx8internal14IExceptionInfoE, i32 0, i32 0, i32 2), ptr %3, align 8
  ret void
}

; Function Attrs: mustprogress uwtable
define internal void @_ZL15gmx_srenew_implI23gmx_sel_mempool_block_tEvPKcS2_iRPT_m(ptr noundef %0, ptr noundef %1, i32 noundef %2, ptr noundef nonnull align 8 dereferenceable(8) %3, i64 noundef %4) #0 {
  %6 = alloca ptr, align 8
  %7 = alloca ptr, align 8
  %8 = alloca i32, align 4
  %9 = alloca ptr, align 8
  %10 = alloca i64, align 8
  store ptr %0, ptr %6, align 8
  store ptr %1, ptr %7, align 8
  store i32 %2, ptr %8, align 4
  store ptr %3, ptr %9, align 8
  store i64 %4, ptr %10, align 8
  %11 = load ptr, ptr %6, align 8
  %12 = load ptr, ptr %7, align 8
  %13 = load i32, ptr %8, align 4
  %14 = load ptr, ptr %9, align 8
  %15 = load ptr, ptr %14, align 8
  %16 = load i64, ptr %10, align 8
  %17 = call noundef ptr @_Z12save_reallocPKcS0_iPvmm(ptr noundef %11, ptr noundef %12, i32 noundef %13, ptr noundef %15, i64 noundef %16, i64 noundef 16)
  %18 = load ptr, ptr %9, align 8
  store ptr %17, ptr %18, align 8
  ret void
}

; Function Attrs: mustprogress nounwind uwtable
define linkonce_odr void @_ZNSt9bad_allocC2Ev(ptr noundef nonnull align 8 dereferenceable(8) %0) unnamed_addr #2 comdat align 2 {
  %2 = alloca ptr, align 8
  store ptr %0, ptr %2, align 8
  %3 = load ptr, ptr %2, align 8
  call void @_ZNSt9exceptionC2Ev(ptr noundef nonnull align 8 dereferenceable(8) %3) #10
  store ptr getelementptr inbounds inrange(-16, 24) ({ [5 x ptr] }, ptr @_ZTVSt9bad_alloc, i32 0, i32 0, i32 2), ptr %3, align 8
  ret void
}

; Function Attrs: mustprogress nounwind uwtable
define linkonce_odr void @_ZN3gmx13ExceptionInfoINS_22ExceptionInfoLocation_ENS_13ThrowLocationEED2Ev(ptr noundef nonnull align 8 dereferenceable(32) %0) unnamed_addr #2 comdat align 2 {
  %2 = alloca ptr, align 8
  store ptr %0, ptr %2, align 8
  %3 = load ptr, ptr %2, align 8
  call void @_ZN3gmx8internal14IExceptionInfoD2Ev(ptr noundef nonnull align 8 dereferenceable(8) %3) #10
  ret void
}

; Function Attrs: mustprogress nounwind uwtable
define linkonce_odr void @_ZN3gmx13ExceptionInfoINS_22ExceptionInfoLocation_ENS_13ThrowLocationEEC2ERKS2_(ptr noundef nonnull align 8 dereferenceable(32) %0, ptr noundef nonnull align 8 dereferenceable(20) %1) unnamed_addr #2 comdat align 2 {
  %3 = alloca ptr, align 8
  %4 = alloca ptr, align 8
  store ptr %0, ptr %3, align 8
  store ptr %1, ptr %4, align 8
  %5 = load ptr, ptr %3, align 8
  call void @_ZN3gmx8internal14IExceptionInfoC2Ev(ptr noundef nonnull align 8 dereferenceable(8) %5) #10
  store ptr getelementptr inbounds inrange(-16, 16) ({ [4 x ptr] }, ptr @_ZTVN3gmx13ExceptionInfoINS_22ExceptionInfoLocation_ENS_13ThrowLocationEEE, i32 0, i32 0, i32 2), ptr %5, align 8
  %6 = getelementptr inbounds %"class.gmx::ExceptionInfo", ptr %5, i32 0, i32 1
  %7 = load ptr, ptr %4, align 8
  call void @llvm.memcpy.p0.p0.i64(ptr align 8 %6, ptr align 8 %7, i64 24, i1 false)
  ret void
}

; Function Attrs: mustprogress nounwind uwtable
define linkonce_odr void @_ZN3gmx13ThrowLocationC2EPKcS2_i(ptr noundef nonnull align 8 dereferenceable(20) %0, ptr noundef %1, ptr noundef %2, i32 noundef %3) unnamed_addr #2 comdat align 2 {
  %5 = alloca ptr, align 8
  %6 = alloca ptr, align 8
  %7 = alloca ptr, align 8
  %8 = alloca i32, align 4
  store ptr %0, ptr %5, align 8
  store ptr %1, ptr %6, align 8
  store ptr %2, ptr %7, align 8
  store i32 %3, ptr %8, align 4
  %9 = load ptr, ptr %5, align 8
  %10 = getelementptr inbounds %"struct.gmx::ThrowLocation", ptr %9, i32 0, i32 0
  %11 = load ptr, ptr %6, align 8
  store ptr %11, ptr %10, align 8
  %12 = getelementptr inbounds %"struct.gmx::ThrowLocation", ptr %9, i32 0, i32 1
  %13 = load ptr, ptr %7, align 8
  store ptr %13, ptr %12, align 8
  %14 = getelementptr inbounds %"struct.gmx::ThrowLocation", ptr %9, i32 0, i32 2
  %15 = load i32, ptr %8, align 4
  store i32 %15, ptr %14, align 8
  ret void
}

; Function Attrs: mustprogress uwtable
define linkonce_odr void @_ZN3gmx13InternalErrorC2ERKNS_20ExceptionInitializerE(ptr noundef nonnull align 8 dereferenceable(24) %0, ptr noundef nonnull align 8 dereferenceable(56) %1) unnamed_addr #0 comdat align 2 {
  %3 = alloca ptr, align 8
  %4 = alloca ptr, align 8
  store ptr %0, ptr %3, align 8
  store ptr %1, ptr %4, align 8
  %5 = load ptr, ptr %3, align 8
  %6 = load ptr, ptr %4, align 8
  call void @_ZN3gmx16GromacsExceptionC2ERKNS_20ExceptionInitializerE(ptr noundef nonnull align 8 dereferenceable(24) %5, ptr noundef nonnull align 8 dereferenceable(56) %6)
  store ptr getelementptr inbounds inrange(-16, 32) ({ [6 x ptr] }, ptr @_ZTVN3gmx13InternalErrorE, i32 0, i32 0, i32 2), ptr %5, align 8
  ret void
}

; Function Attrs: mustprogress nounwind uwtable
define linkonce_odr noundef i64 @_ZN3gmx13divideRoundUpImEET_S1_S1_(i64 noundef %0, i64 noundef %1) #2 comdat {
  %3 = alloca i64, align 8
  %4 = alloca i64, align 8
  store i64 %0, ptr %3, align 8
  store i64 %1, ptr %4, align 8
  %5 = load i64, ptr %3, align 8
  %6 = load i64, ptr %4, align 8
  %7 = add i64 %5, %6
  %8 = sub i64 %7, 1
  %9 = load i64, ptr %4, align 8
  %10 = udiv i64 %8, %9
  ret i64 %10
}

; Function Attrs: mustprogress uwtable
define noundef ptr @_Z22_gmx_sel_mempool_allocP17gmx_sel_mempool_tm(ptr noundef %0, i64 noundef %1) #0 personality ptr @__gxx_personality_v0 {
  %3 = alloca ptr, align 8
  %4 = alloca i64, align 8
  %5 = alloca ptr, align 8
  %6 = alloca i64, align 8
  %7 = alloca %"class.gmx::InternalError", align 8
  %8 = alloca %"class.gmx::ExceptionInitializer", align 8
  %9 = alloca ptr, align 8
  %10 = alloca i32, align 4
  %11 = alloca %"class.gmx::ExceptionInfo", align 8
  %12 = alloca %"struct.gmx::ThrowLocation", align 8
  %13 = alloca i1, align 1
  store ptr %0, ptr %3, align 8
  store i64 %1, ptr %4, align 8
  store ptr null, ptr %5, align 8
  %14 = load i64, ptr %4, align 8
  %15 = call noundef i64 @_ZN3gmx13divideRoundUpImEET_S1_S1_(i64 noundef %14, i64 noundef 8)
  %16 = mul i64 %15, 8
  store i64 %16, ptr %6, align 8
  %17 = load ptr, ptr %3, align 8
  %18 = getelementptr inbounds %struct.gmx_sel_mempool_t, ptr %17, i32 0, i32 2
  %19 = load ptr, ptr %18, align 8
  %20 = icmp ne ptr %19, null
  br i1 %20, label %21, label %75

21:                                               ; preds = %2
  %22 = load ptr, ptr %3, align 8
  %23 = getelementptr inbounds %struct.gmx_sel_mempool_t, ptr %22, i32 0, i32 1
  %24 = load i64, ptr %23, align 8
  %25 = load i64, ptr %4, align 8
  %26 = icmp ult i64 %24, %25
  br i1 %26, label %27, label %56

27:                                               ; preds = %21
  store i1 true, ptr %13, align 1
  %28 = call ptr @__cxa_allocate_exception(i64 24) #10
  invoke void @_ZN3gmx20ExceptionInitializerC2EPKc(ptr noundef nonnull align 8 dereferenceable(56) %8, ptr noundef @.str.5)
          to label %29 unwind label %34

29:                                               ; preds = %27
  invoke void @_ZN3gmx13InternalErrorC2ERKNS_20ExceptionInitializerE(ptr noundef nonnull align 8 dereferenceable(24) %7, ptr noundef nonnull align 8 dereferenceable(56) %8)
          to label %30 unwind label %38

30:                                               ; preds = %29
  invoke void @_ZN3gmx13ThrowLocationC2EPKcS2_i(ptr noundef nonnull align 8 dereferenceable(20) %12, ptr noundef @__PRETTY_FUNCTION__._Z22_gmx_sel_mempool_allocP17gmx_sel_mempool_tm, ptr noundef @.str.1, i32 noundef 136)
          to label %31 unwind label %42

31:                                               ; preds = %30
  invoke void @_ZN3gmx13ExceptionInfoINS_22ExceptionInfoLocation_ENS_13ThrowLocationEEC2ERKS2_(ptr noundef nonnull align 8 dereferenceable(32) %11, ptr noundef nonnull align 8 dereferenceable(20) %12)
          to label %32 unwind label %42

32:                                               ; preds = %31
  invoke void @_ZN3gmxlsINS_13InternalErrorENS_22ExceptionInfoLocation_ENS_13ThrowLocationEEENSt9enable_ifIXsr3std10is_base_ofINS_16GromacsExceptionET_EE5valueES6_E4typeES6_RKNS_13ExceptionInfoIT0_T1_EE(ptr dead_on_unwind writable sret(%"class.gmx::InternalError") align 8 %28, ptr noundef %7, ptr noundef nonnull align 8 dereferenceable(32) %11)
          to label %33 unwind label %46

33:                                               ; preds = %32
  store i1 false, ptr %13, align 1
  invoke void @__cxa_throw(ptr %28, ptr @_ZTIN3gmx13InternalErrorE, ptr @_ZN3gmx13InternalErrorD2Ev) #11
          to label %154 unwind label %46

34:                                               ; preds = %27
  %35 = landingpad { ptr, i32 }
          cleanup
  %36 = extractvalue { ptr, i32 } %35, 0
  store ptr %36, ptr %9, align 8
  %37 = extractvalue { ptr, i32 } %35, 1
  store i32 %37, ptr %10, align 4
  br label %52

38:                                               ; preds = %29
  %39 = landingpad { ptr, i32 }
          cleanup
  %40 = extractvalue { ptr, i32 } %39, 0
  store ptr %40, ptr %9, align 8
  %41 = extractvalue { ptr, i32 } %39, 1
  store i32 %41, ptr %10, align 4
  br label %51

42:                                               ; preds = %31, %30
  %43 = landingpad { ptr, i32 }
          cleanup
  %44 = extractvalue { ptr, i32 } %43, 0
  store ptr %44, ptr %9, align 8
  %45 = extractvalue { ptr, i32 } %43, 1
  store i32 %45, ptr %10, align 4
  br label %50

46:                                               ; preds = %33, %32
  %47 = landingpad { ptr, i32 }
          cleanup
  %48 = extractvalue { ptr, i32 } %47, 0
  store ptr %48, ptr %9, align 8
  %49 = extractvalue { ptr, i32 } %47, 1
  store i32 %49, ptr %10, align 4
  call void @_ZN3gmx13ExceptionInfoINS_22ExceptionInfoLocation_ENS_13ThrowLocationEED2Ev(ptr noundef nonnull align 8 dereferenceable(32) %11) #10
  br label %50

50:                                               ; preds = %46, %42
  call void @_ZN3gmx13InternalErrorD2Ev(ptr noundef nonnull align 8 dereferenceable(24) %7) #10
  br label %51

51:                                               ; preds = %50, %38
  call void @_ZN3gmx20ExceptionInitializerD2Ev(ptr noundef nonnull align 8 dereferenceable(56) %8) #10
  br label %52

52:                                               ; preds = %51, %34
  %53 = load i1, ptr %13, align 1
  br i1 %53, label %54, label %55

54:                                               ; preds = %52
  call void @__cxa_free_exception(ptr %28) #10
  br label %55

55:                                               ; preds = %54, %52
  br label %149

56:                                               ; preds = %21
  %57 = load ptr, ptr %3, align 8
  %58 = getelementptr inbounds %struct.gmx_sel_mempool_t, ptr %57, i32 0, i32 3
  %59 = load ptr, ptr %58, align 8
  store ptr %59, ptr %5, align 8
  %60 = load i64, ptr %6, align 8
  %61 = load ptr, ptr %3, align 8
  %62 = getelementptr inbounds %struct.gmx_sel_mempool_t, ptr %61, i32 0, i32 3
  %63 = load ptr, ptr %62, align 8
  %64 = getelementptr inbounds i8, ptr %63, i64 %60
  store ptr %64, ptr %62, align 8
  %65 = load i64, ptr %6, align 8
  %66 = load ptr, ptr %3, align 8
  %67 = getelementptr inbounds %struct.gmx_sel_mempool_t, ptr %66, i32 0, i32 1
  %68 = load i64, ptr %67, align 8
  %69 = sub i64 %68, %65
  store i64 %69, ptr %67, align 8
  %70 = load i64, ptr %6, align 8
  %71 = load ptr, ptr %3, align 8
  %72 = getelementptr inbounds %struct.gmx_sel_mempool_t, ptr %71, i32 0, i32 0
  %73 = load i64, ptr %72, align 8
  %74 = add i64 %73, %70
  store i64 %74, ptr %72, align 8
  br label %102

75:                                               ; preds = %2
  %76 = load i64, ptr %4, align 8
  %77 = call noalias ptr @malloc(i64 noundef %76) #12
  store ptr %77, ptr %5, align 8
  %78 = load ptr, ptr %5, align 8
  %79 = icmp ne ptr %78, null
  br i1 %79, label %82, label %80

80:                                               ; preds = %75
  %81 = call ptr @__cxa_allocate_exception(i64 8) #10
  call void @_ZNSt9bad_allocC2Ev(ptr noundef nonnull align 8 dereferenceable(8) %81) #10
  call void @__cxa_throw(ptr %81, ptr @_ZTISt9bad_alloc, ptr @_ZNSt9bad_allocD1Ev) #11
  unreachable

82:                                               ; preds = %75
  %83 = load i64, ptr %6, align 8
  %84 = load ptr, ptr %3, align 8
  %85 = getelementptr inbounds %struct.gmx_sel_mempool_t, ptr %84, i32 0, i32 0
  %86 = load i64, ptr %85, align 8
  %87 = add i64 %86, %83
  store i64 %87, ptr %85, align 8
  %88 = load ptr, ptr %3, align 8
  %89 = getelementptr inbounds %struct.gmx_sel_mempool_t, ptr %88, i32 0, i32 0
  %90 = load i64, ptr %89, align 8
  %91 = load ptr, ptr %3, align 8
  %92 = getelementptr inbounds %struct.gmx_sel_mempool_t, ptr %91, i32 0, i32 7
  %93 = load i64, ptr %92, align 8
  %94 = icmp ugt i64 %90, %93
  br i1 %94, label %95, label %101

95:                                               ; preds = %82
  %96 = load ptr, ptr %3, align 8
  %97 = getelementptr inbounds %struct.gmx_sel_mempool_t, ptr %96, i32 0, i32 0
  %98 = load i64, ptr %97, align 8
  %99 = load ptr, ptr %3, align 8
  %100 = getelementptr inbounds %struct.gmx_sel_mempool_t, ptr %99, i32 0, i32 7
  store i64 %98, ptr %100, align 8
  br label %101

101:                                              ; preds = %95, %82
  br label %102

102:                                              ; preds = %101, %56
  %103 = load ptr, ptr %3, align 8
  %104 = getelementptr inbounds %struct.gmx_sel_mempool_t, ptr %103, i32 0, i32 4
  %105 = load i32, ptr %104, align 8
  %106 = load ptr, ptr %3, align 8
  %107 = getelementptr inbounds %struct.gmx_sel_mempool_t, ptr %106, i32 0, i32 6
  %108 = load i32, ptr %107, align 8
  %109 = icmp sge i32 %105, %108
  br i1 %109, label %110, label %123

110:                                              ; preds = %102
  %111 = load ptr, ptr %3, align 8
  %112 = getelementptr inbounds %struct.gmx_sel_mempool_t, ptr %111, i32 0, i32 4
  %113 = load i32, ptr %112, align 8
  %114 = add nsw i32 %113, 10
  %115 = load ptr, ptr %3, align 8
  %116 = getelementptr inbounds %struct.gmx_sel_mempool_t, ptr %115, i32 0, i32 6
  store i32 %114, ptr %116, align 8
  %117 = load ptr, ptr %3, align 8
  %118 = getelementptr inbounds %struct.gmx_sel_mempool_t, ptr %117, i32 0, i32 5
  %119 = load ptr, ptr %3, align 8
  %120 = getelementptr inbounds %struct.gmx_sel_mempool_t, ptr %119, i32 0, i32 6
  %121 = load i32, ptr %120, align 8
  %122 = sext i32 %121 to i64
  call void @_ZL15gmx_srenew_implI23gmx_sel_mempool_block_tEvPKcS2_iRPT_m(ptr noundef @.str.4, ptr noundef @.str.1, i32 noundef 160, ptr noundef nonnull align 8 dereferenceable(8) %118, i64 noundef %122)
  br label %123

123:                                              ; preds = %110, %102
  %124 = load ptr, ptr %5, align 8
  %125 = load ptr, ptr %3, align 8
  %126 = getelementptr inbounds %struct.gmx_sel_mempool_t, ptr %125, i32 0, i32 5
  %127 = load ptr, ptr %126, align 8
  %128 = load ptr, ptr %3, align 8
  %129 = getelementptr inbounds %struct.gmx_sel_mempool_t, ptr %128, i32 0, i32 4
  %130 = load i32, ptr %129, align 8
  %131 = sext i32 %130 to i64
  %132 = getelementptr inbounds %struct.gmx_sel_mempool_block_t, ptr %127, i64 %131
  %133 = getelementptr inbounds %struct.gmx_sel_mempool_block_t, ptr %132, i32 0, i32 0
  store ptr %124, ptr %133, align 8
  %134 = load i64, ptr %6, align 8
  %135 = load ptr, ptr %3, align 8
  %136 = getelementptr inbounds %struct.gmx_sel_mempool_t, ptr %135, i32 0, i32 5
  %137 = load ptr, ptr %136, align 8
  %138 = load ptr, ptr %3, align 8
  %139 = getelementptr inbounds %struct.gmx_sel_mempool_t, ptr %138, i32 0, i32 4
  %140 = load i32, ptr %139, align 8
  %141 = sext i32 %140 to i64
  %142 = getelementptr inbounds %struct.gmx_sel_mempool_block_t, ptr %137, i64 %141
  %143 = getelementptr inbounds %struct.gmx_sel_mempool_block_t, ptr %142, i32 0, i32 1
  store i64 %134, ptr %143, align 8
  %144 = load ptr, ptr %3, align 8
  %145 = getelementptr inbounds %struct.gmx_sel_mempool_t, ptr %144, i32 0, i32 4
  %146 = load i32, ptr %145, align 8
  %147 = add nsw i32 %146, 1
  store i32 %147, ptr %145, align 8
  %148 = load ptr, ptr %5, align 8
  ret ptr %148

149:                                              ; preds = %55
  %150 = load ptr, ptr %9, align 8
  %151 = load i32, ptr %10, align 4
  %152 = insertvalue { ptr, i32 } poison, ptr %150, 0
  %153 = insertvalue { ptr, i32 } %152, i32 %151, 1
  resume { ptr, i32 } %153

154:                                              ; preds = %33
  unreachable
}