; Function Attrs: mustprogress uwtable
define noundef ptr @_Z22_gmx_sel_mempool_allocP17gmx_sel_mempool_tm(ptr nocapture noundef %0, i64 noundef %1) local_unnamed_addr #0 personality ptr @__gxx_personality_v0 {
  %3 = alloca %"class.gmx::InternalError", align 8
  %4 = alloca %"class.gmx::ExceptionInitializer", align 8
  %5 = alloca %"class.gmx::ExceptionInfo", align 8
  %6 = add i64 %1, 7
  %7 = and i64 %6, -8
  %8 = getelementptr inbounds i8, ptr %0, i64 16
  %9 = load ptr, ptr %8, align 8
  %.not = icmp eq ptr %9, null
  br i1 %.not, label %32, label %10

10:                                               ; preds = %2
  %11 = getelementptr inbounds i8, ptr %0, i64 8
  %12 = load i64, ptr %11, align 8
  %13 = icmp ult i64 %12, %1
  br i1 %13, label %14, label %25

14:                                               ; preds = %10
  %15 = tail call ptr @__cxa_allocate_exception(i64 24) #13
  invoke void @_ZN3gmx20ExceptionInitializerC2EPKc(ptr noundef nonnull align 8 dereferenceable(56) %4, ptr noundef nonnull @.str.5)
          to label %16 unwind label %.thread

16:                                               ; preds = %14
  invoke void @_ZN3gmx16GromacsExceptionC2ERKNS_20ExceptionInitializerE(ptr noundef nonnull align 8 dereferenceable(24) %3, ptr noundef nonnull align 8 dereferenceable(56) %4)
          to label %17 unwind label %.thread51

17:                                               ; preds = %16
  store ptr getelementptr inbounds inrange(-16, 32) ({ [6 x ptr] }, ptr @_ZTVN3gmx13InternalErrorE, i64 0, i32 0, i64 2), ptr %3, align 8
  store ptr getelementptr inbounds inrange(-16, 16) ({ [4 x ptr] }, ptr @_ZTVN3gmx13ExceptionInfoINS_22ExceptionInfoLocation_ENS_13ThrowLocationEEE, i64 0, i32 0, i64 2), ptr %5, align 8
  %18 = getelementptr inbounds i8, ptr %5, i64 8
  store ptr @__PRETTY_FUNCTION__._Z22_gmx_sel_mempool_allocP17gmx_sel_mempool_tm, ptr %18, align 8
  %.sroa.2.0..sroa_idx = getelementptr inbounds i8, ptr %5, i64 16
  store ptr @.str.1, ptr %.sroa.2.0..sroa_idx, align 8
  %.sroa.3.0..sroa_idx = getelementptr inbounds i8, ptr %5, i64 24
  store i32 136, ptr %.sroa.3.0..sroa_idx, align 8
  invoke void @_ZN3gmxlsINS_13InternalErrorENS_22ExceptionInfoLocation_ENS_13ThrowLocationEEENSt9enable_ifIXsr3std10is_base_ofINS_16GromacsExceptionET_EE5valueES6_E4typeES6_RKNS_13ExceptionInfoIT0_T1_EE(ptr dead_on_unwind writable sret(%"class.gmx::InternalError") align 8 %15, ptr noundef nonnull %3, ptr noundef nonnull align 8 dereferenceable(32) %5)
          to label %19 unwind label %22

19:                                               ; preds = %17
  invoke void @__cxa_throw(ptr %15, ptr nonnull @_ZTIN3gmx13InternalErrorE, ptr nonnull @_ZN3gmx13InternalErrorD2Ev) #14
          to label %67 unwind label %22

.thread:                                          ; preds = %14
  %20 = landingpad { ptr, i32 }
          cleanup
  br label %24

.thread51:                                        ; preds = %16
  %21 = landingpad { ptr, i32 }
          cleanup
  call void @_ZN3gmx20ExceptionInitializerD2Ev(ptr noundef nonnull align 8 dereferenceable(56) %4) #13
  br label %24

22:                                               ; preds = %17, %19
  %.0 = phi i1 [ false, %19 ], [ true, %17 ]
  %23 = landingpad { ptr, i32 }
          cleanup
  call void @_ZN3gmx8internal14IExceptionInfoD2Ev(ptr noundef nonnull align 8 dereferenceable(8) %5) #13
  call void @_ZN3gmx13InternalErrorD2Ev(ptr noundef nonnull align 8 dereferenceable(24) %3) #13
  call void @_ZN3gmx20ExceptionInitializerD2Ev(ptr noundef nonnull align 8 dereferenceable(56) %4) #13
  br i1 %.0, label %24, label %66

24:                                               ; preds = %.thread51, %.thread, %22
  %.pn.pn50 = phi { ptr, i32 } [ %20, %.thread ], [ %23, %22 ], [ %21, %.thread51 ]
  call void @__cxa_free_exception(ptr %15) #13
  br label %66

25:                                               ; preds = %10
  %26 = getelementptr inbounds i8, ptr %0, i64 24
  %27 = load ptr, ptr %26, align 8
  %28 = getelementptr inbounds i8, ptr %27, i64 %7
  store ptr %28, ptr %26, align 8
  %29 = sub i64 %12, %7
  store i64 %29, ptr %11, align 8
  %30 = load i64, ptr %0, align 8
  %31 = add i64 %30, %7
  store i64 %31, ptr %0, align 8
  br label %43

32:                                               ; preds = %2
  %33 = tail call noalias ptr @malloc(i64 noundef %1) #15
  %.not43 = icmp eq ptr %33, null
  br i1 %.not43, label %34, label %36

34:                                               ; preds = %32
  %35 = tail call ptr @__cxa_allocate_exception(i64 8) #13
  store ptr getelementptr inbounds inrange(-16, 24) ({ [5 x ptr] }, ptr @_ZTVSt9bad_alloc, i64 0, i32 0, i64 2), ptr %35, align 8
  tail call void @__cxa_throw(ptr nonnull %35, ptr nonnull @_ZTISt9bad_alloc, ptr nonnull @_ZNSt9bad_allocD1Ev) #14
  unreachable

36:                                               ; preds = %32
  %37 = load i64, ptr %0, align 8
  %38 = add i64 %37, %7
  store i64 %38, ptr %0, align 8
  %39 = getelementptr inbounds i8, ptr %0, i64 56
  %40 = load i64, ptr %39, align 8
  %41 = icmp ugt i64 %38, %40
  br i1 %41, label %42, label %43

42:                                               ; preds = %36
  store i64 %38, ptr %39, align 8
  br label %43

43:                                               ; preds = %36, %42, %25
  %.039 = phi ptr [ %27, %25 ], [ %33, %42 ], [ %33, %36 ]
  %44 = getelementptr inbounds i8, ptr %0, i64 32
  %45 = load i32, ptr %44, align 8
  %46 = getelementptr inbounds i8, ptr %0, i64 48
  %47 = load i32, ptr %46, align 8
  %.not44 = icmp slt i32 %45, %47
  br i1 %.not44, label %._crit_edge, label %48

._crit_edge:                                      ; preds = %43
  %.phi.trans.insert = getelementptr inbounds i8, ptr %0, i64 40
  %.pre = load ptr, ptr %.phi.trans.insert, align 8
  br label %54

48:                                               ; preds = %43
  %49 = add nsw i32 %45, 10
  store i32 %49, ptr %46, align 8
  %50 = getelementptr inbounds i8, ptr %0, i64 40
  %51 = sext i32 %49 to i64
  %52 = load ptr, ptr %50, align 8
  %53 = tail call noundef ptr @_Z12save_reallocPKcS0_iPvmm(ptr noundef nonnull @.str.4, ptr noundef nonnull @.str.1, i32 noundef 160, ptr noundef %52, i64 noundef %51, i64 noundef 16)
  store ptr %53, ptr %50, align 8
  %.pre54 = load i32, ptr %44, align 8
  br label %54

54:                                               ; preds = %._crit_edge, %48
  %55 = phi i32 [ %45, %._crit_edge ], [ %.pre54, %48 ]
  %56 = phi ptr [ %.pre, %._crit_edge ], [ %53, %48 ]
  %57 = getelementptr inbounds i8, ptr %0, i64 40
  %58 = sext i32 %55 to i64
  %59 = getelementptr inbounds %struct.gmx_sel_mempool_block_t, ptr %56, i64 %58
  store ptr %.039, ptr %59, align 8
  %60 = load ptr, ptr %57, align 8
  %61 = load i32, ptr %44, align 8
  %62 = sext i32 %61 to i64
  %63 = getelementptr inbounds %struct.gmx_sel_mempool_block_t, ptr %60, i64 %62, i32 1
  store i64 %7, ptr %63, align 8
  %64 = load i32, ptr %44, align 8
  %65 = add nsw i32 %64, 1
  store i32 %65, ptr %44, align 8
  ret ptr %.039

66:                                               ; preds = %22, %24
  %.pn.pn49 = phi { ptr, i32 } [ %23, %22 ], [ %.pn.pn50, %24 ]
  resume { ptr, i32 } %.pn.pn49

67:                                               ; preds = %19
  unreachable
}